target datalayout = "e-m:e-p270:32:32-p271:32:32-p272:64:64-i64:64-i128:128-f80:128-n8:16:32:64-S128"
target triple = "x86_64-pc-linux-gnu"

%struct.pack_info_t = type { [256 x i8], [6 x %struct.filter_info_t], i32, i32, %struct.chunk_info_t, i64 }
%struct.filter_info_t = type { i32, i32, [20 x i32], i64 }
%struct.chunk_info_t = type { [32 x i64], i32 }
%struct.pack_opttbl_t = type { i32, i32, ptr }

@.str = private unnamed_addr constant [2 x i8] zeroinitializer, align 1
@enable_error_stack = external global i32, align 4
@H5tools_ERR_STACK_g = external global i64, align 8
@H5tools_ERR_CLS_g = external global i64, align 8
@.str.1 = private unnamed_addr constant [126 x i8] c"generated/home/dtcxzyw/WorkSpace/Projects/compilers/llvm-opt-benchmark/bench/hdf5/hdf5/tools/src/h5repack/h5repack_opttable.c\00", align 1
@H5E_tools_g = external global i64, align 8
@.str.2 = private unnamed_addr constant [36 x i8] c"not enough memory for options table\00", align 1
@stderr = external global ptr, align 8
@.str.3 = private unnamed_addr constant [2 x i8] c"\0A\00", align 1
@H5E_tools_min_info_id_g = external global i64, align 8
@__func__.aux_inctable = private unnamed_addr constant [13 x i8] c"aux_inctable\00", align 1

; Function Attrs: nounwind uwtable
define dso_local void @init_packobject(ptr noundef %0) #0 {
  %2 = alloca ptr, align 8
  %3 = alloca i32, align 4
  %4 = alloca i32, align 4
  store ptr %0, ptr %2, align 8, !tbaa !4
  call void @llvm.lifetime.start.p0(i64 4, ptr %3) #9
  call void @llvm.lifetime.start.p0(i64 4, ptr %4) #9
  %5 = load ptr, ptr %2, align 8, !tbaa !4
  %6 = getelementptr inbounds nuw %struct.pack_info_t, ptr %5, i32 0, i32 0
  %7 = getelementptr inbounds [256 x i8], ptr %6, i64 0, i64 0
  %8 = call ptr @strcpy(ptr noundef %7, ptr noundef @.str) #9
  store i32 0, ptr %3, align 4, !tbaa !8
  br label %9

9:                                                ; preds = %42, %1
  %10 = load i32, ptr %3, align 4, !tbaa !8
  %11 = icmp slt i32 %10, 6
  br i1 %11, label %12, label %45

12:                                               ; preds = %9
  %13 = load ptr, ptr %2, align 8, !tbaa !4
  %14 = getelementptr inbounds nuw %struct.pack_info_t, ptr %13, i32 0, i32 1
  %15 = load i32, ptr %3, align 4, !tbaa !8
  %16 = sext i32 %15 to i64
  %17 = getelementptr inbounds [6 x %struct.filter_info_t], ptr %14, i64 0, i64 %16
  %18 = getelementptr inbounds nuw %struct.filter_info_t, ptr %17, i32 0, i32 0
  store i32 -1, ptr %18, align 8, !tbaa !10
  %19 = load ptr, ptr %2, align 8, !tbaa !4
  %20 = getelementptr inbounds nuw %struct.pack_info_t, ptr %19, i32 0, i32 1
  %21 = load i32, ptr %3, align 4, !tbaa !8
  %22 = sext i32 %21 to i64
  %23 = getelementptr inbounds [6 x %struct.filter_info_t], ptr %20, i64 0, i64 %22
  %24 = getelementptr inbounds nuw %struct.filter_info_t, ptr %23, i32 0, i32 3
  store i64 20, ptr %24, align 8, !tbaa !13
  store i32 0, ptr %4, align 4, !tbaa !8
  br label %25

25:                                               ; preds = %38, %12
  %26 = load i32, ptr %4, align 4, !tbaa !8
  %27 = icmp slt i32 %26, 20
  br i1 %27, label %28, label %41

28:                                               ; preds = %25
  %29 = load ptr, ptr %2, align 8, !tbaa !4
  %30 = getelementptr inbounds nuw %struct.pack_info_t, ptr %29, i32 0, i32 1
  %31 = load i32, ptr %3, align 4, !tbaa !8
  %32 = sext i32 %31 to i64
  %33 = getelementptr inbounds [6 x %struct.filter_info_t], ptr %30, i64 0, i64 %32
  %34 = getelementptr inbounds nuw %struct.filter_info_t, ptr %33, i32 0, i32 2
  %35 = load i32, ptr %4, align 4, !tbaa !8
  %36 = sext i32 %35 to i64
  %37 = getelementptr inbounds [20 x i32], ptr %34, i64 0, i64 %36
  store i32 0, ptr %37, align 4, !tbaa !8
  br label %38

38:                                               ; preds = %28
  %39 = load i32, ptr %4, align 4, !tbaa !8
  %40 = add nsw i32 %39, 1
  store i32 %40, ptr %4, align 4, !tbaa !8
  br label %25, !llvm.loop !14

41:                                               ; preds = %25
  br label %42

42:                                               ; preds = %41
  %43 = load i32, ptr %3, align 4, !tbaa !8
  %44 = add nsw i32 %43, 1
  store i32 %44, ptr %3, align 4, !tbaa !8
  br label %9, !llvm.loop !16

45:                                               ; preds = %9
  %46 = load ptr, ptr %2, align 8, !tbaa !4
  %47 = getelementptr inbounds nuw %struct.pack_info_t, ptr %46, i32 0, i32 4
  %48 = getelementptr inbounds nuw %struct.chunk_info_t, ptr %47, i32 0, i32 1
  store i32 -1, ptr %48, align 8, !tbaa !17
  %49 = load ptr, ptr %2, align 8, !tbaa !4
  %50 = getelementptr inbounds nuw %struct.pack_info_t, ptr %49, i32 0, i32 5
  store i64 -1, ptr %50, align 8, !tbaa !20
  %51 = load ptr, ptr %2, align 8, !tbaa !4
  %52 = getelementptr inbounds nuw %struct.pack_info_t, ptr %51, i32 0, i32 3
  store i32 -1, ptr %52, align 4, !tbaa !21
  %53 = load ptr, ptr %2, align 8, !tbaa !4
  %54 = getelementptr inbounds nuw %struct.pack_info_t, ptr %53, i32 0, i32 2
  store i32 0, ptr %54, align 8, !tbaa !22
  call void @llvm.lifetime.end.p0(i64 4, ptr %4) #9
  call void @llvm.lifetime.end.p0(i64 4, ptr %3) #9
  ret void
}

; Function Attrs: nounwind uwtable
define internal i32 @aux_inctable(ptr noundef %0, i32 noundef %1) #0 {
  %3 = alloca ptr, align 8
  %4 = alloca i32, align 4
  %5 = alloca i32, align 4
  %6 = alloca i32, align 4
  store ptr %0, ptr %3, align 8, !tbaa !4
  store i32 %1, ptr %4, align 4, !tbaa !8
  call void @llvm.lifetime.start.p0(i64 4, ptr %5) #9
  call void @llvm.lifetime.start.p0(i64 4, ptr %6) #9
  store i32 0, ptr %6, align 4, !tbaa !8
  %7 = load i32, ptr %4, align 4, !tbaa !8
  %8 = load ptr, ptr %3, align 8, !tbaa !4
  %9 = getelementptr inbounds nuw %struct.pack_opttbl_t, ptr %8, i32 0, i32 0
  %10 = load i32, ptr %9, align 8, !tbaa !26
  %11 = add i32 %10, %7
  store i32 %11, ptr %9, align 8, !tbaa !26
  %12 = load ptr, ptr %3, align 8, !tbaa !4
  %13 = getelementptr inbounds nuw %struct.pack_opttbl_t, ptr %12, i32 0, i32 2
  %14 = load ptr, ptr %13, align 8, !tbaa !29
  %15 = load ptr, ptr %3, align 8, !tbaa !4
  %16 = getelementptr inbounds nuw %struct.pack_opttbl_t, ptr %15, i32 0, i32 0
  %17 = load i32, ptr %16, align 8, !tbaa !26
  %18 = zext i32 %17 to i64
  %19 = mul i64 %18, 1112
  %20 = call ptr @realloc(ptr noundef %14, i64 noundef %19) #13
  %21 = load ptr, ptr %3, align 8, !tbaa !4
  %22 = getelementptr inbounds nuw %struct.pack_opttbl_t, ptr %21, i32 0, i32 2
  store ptr %20, ptr %22, align 8, !tbaa !29
  %23 = load ptr, ptr %3, align 8, !tbaa !4
  %24 = getelementptr inbounds nuw %struct.pack_opttbl_t, ptr %23, i32 0, i32 2
  %25 = load ptr, ptr %24, align 8, !tbaa !29
  %26 = icmp eq ptr %25, null
  br i1 %26, label %27, label %55

27:                                               ; preds = %2
  br label %28

28:                                               ; preds = %27
  br label %29

29:                                               ; preds = %28
  %30 = load i32, ptr @enable_error_stack, align 4, !tbaa !8
  %31 = icmp sgt i32 %30, 0
  br i1 %31, label %32, label %50

32:                                               ; preds = %29
  %33 = load i64, ptr @H5tools_ERR_STACK_g, align 8, !tbaa !23
  %34 = icmp sge i64 %33, 0
  br i1 %34, label %35, label %44

35:                                               ; preds = %32
  %36 = load i64, ptr @H5tools_ERR_CLS_g, align 8, !tbaa !23
  %37 = icmp sge i64 %36, 0
  br i1 %37, label %38, label %44

38:                                               ; preds = %35
  %39 = load i64, ptr @H5tools_ERR_STACK_g, align 8, !tbaa !23
  %40 = load i64, ptr @H5tools_ERR_CLS_g, align 8, !tbaa !23
  %41 = load i64, ptr @H5E_tools_g, align 8, !tbaa !23
  %42 = load i64, ptr @H5E_tools_min_info_id_g, align 8, !tbaa !23
  %43 = call i32 (i64, ptr, ptr, i32, i64, i64, i64, ptr, ...) @H5Epush2(i64 noundef %39, ptr noundef @.str.1, ptr noundef @__func__.aux_inctable, i32 noundef 109, i64 noundef %40, i64 noundef %41, i64 noundef %42, ptr noundef @.str.2)
  br label %49

44:                                               ; preds = %35, %32
  %45 = load ptr, ptr @stderr, align 8, !tbaa !24
  %46 = call i32 (ptr, ptr, ...) @fprintf(ptr noundef %45, ptr noundef @.str.2) #9
  %47 = load ptr, ptr @stderr, align 8, !tbaa !24
  %48 = call i32 (ptr, ptr, ...) @fprintf(ptr noundef %47, ptr noundef @.str.3) #9
  br label %49

49:                                               ; preds = %44, %38
  br label %50

50:                                               ; preds = %49, %29
  br label %51

51:                                               ; preds = %50
  br label %52

52:                                               ; preds = %51
  br label %53

53:                                               ; preds = %52
  br label %54

54:                                               ; preds = %53
  store i32 -1, ptr %6, align 4, !tbaa !8
  br label %76

55:                                               ; preds = %2
  %56 = load ptr, ptr %3, align 8, !tbaa !4
  %57 = getelementptr inbounds nuw %struct.pack_opttbl_t, ptr %56, i32 0, i32 1
  %58 = load i32, ptr %57, align 4, !tbaa !28
  store i32 %58, ptr %5, align 4, !tbaa !8
  br label %59

59:                                               ; preds = %72, %55
  %60 = load i32, ptr %5, align 4, !tbaa !8
  %61 = load ptr, ptr %3, align 8, !tbaa !4
  %62 = getelementptr inbounds nuw %struct.pack_opttbl_t, ptr %61, i32 0, i32 0
  %63 = load i32, ptr %62, align 8, !tbaa !26
  %64 = icmp ult i32 %60, %63
  br i1 %64, label %65, label %75

65:                                               ; preds = %59
  %66 = load ptr, ptr %3, align 8, !tbaa !4
  %67 = getelementptr inbounds nuw %struct.pack_opttbl_t, ptr %66, i32 0, i32 2
  %68 = load ptr, ptr %67, align 8, !tbaa !29
  %69 = load i32, ptr %5, align 4, !tbaa !8
  %70 = zext i32 %69 to i64
  %71 = getelementptr inbounds nuw %struct.pack_info_t, ptr %68, i64 %70
  call void @init_packobject(ptr noundef %71)
  br label %72

72:                                               ; preds = %65
  %73 = load i32, ptr %5, align 4, !tbaa !8
  %74 = add i32 %73, 1
  store i32 %74, ptr %5, align 4, !tbaa !8
  br label %59, !llvm.loop !38

75:                                               ; preds = %59
  br label %76

76:                                               ; preds = %75, %54
  %77 = load i32, ptr %6, align 4, !tbaa !8
  call void @llvm.lifetime.end.p0(i64 4, ptr %6) #9
  call void @llvm.lifetime.end.p0(i64 4, ptr %5) #9
  ret i32 %77
}