; Function Attrs: nounwind uwtable
define internal fastcc range(i32 -1, 1) i32 @aux_inctable(ptr noundef captures(none) %0, i32 noundef %1) unnamed_addr #3 {
  %3 = load i32, ptr %0, align 8, !tbaa !24
  %4 = add i32 %3, %1
  store i32 %4, ptr %0, align 8, !tbaa !24
  %5 = getelementptr inbounds nuw i8, ptr %0, i64 8
  %6 = load ptr, ptr %5, align 8, !tbaa !27
  %7 = zext i32 %4 to i64
  %8 = mul nuw nsw i64 %7, 1112
  %9 = tail call ptr @realloc(ptr noundef %6, i64 noundef %8) #22
  store ptr %9, ptr %5, align 8, !tbaa !27
  %10 = icmp eq ptr %9, null
  br i1 %10, label %11, label %27

11:                                               ; preds = %2
  %12 = load i32, ptr @enable_error_stack, align 4, !tbaa !11
  %13 = icmp sgt i32 %12, 0
  br i1 %13, label %14, label %.loopexit

14:                                               ; preds = %11
  %15 = load i64, ptr @H5tools_ERR_STACK_g, align 8, !tbaa !20
  %16 = icmp sgt i64 %15, -1
  %17 = load i64, ptr @H5tools_ERR_CLS_g, align 8
  %18 = icmp sgt i64 %17, -1
  %or.cond = select i1 %16, i1 %18, i1 false
  br i1 %or.cond, label %19, label %23

19:                                               ; preds = %14
  %20 = load i64, ptr @H5E_tools_g, align 8, !tbaa !20
  %21 = load i64, ptr @H5E_tools_min_info_id_g, align 8, !tbaa !20
  %22 = tail call i32 (i64, ptr, ptr, i32, i64, i64, i64, ptr, ...) @H5Epush2(i64 noundef %15, ptr noundef nonnull @.str.1, ptr noundef nonnull @__func__.aux_inctable, i32 noundef 109, i64 noundef %17, i64 noundef %20, i64 noundef %21, ptr noundef nonnull @.str.2) #17
  br label %.loopexit

23:                                               ; preds = %14
  %24 = load ptr, ptr @stderr, align 8, !tbaa !21
  %25 = tail call i64 @fwrite(ptr nonnull @.str.2, i64 35, i64 1, ptr %24) #18
  %26 = load ptr, ptr @stderr, align 8, !tbaa !21
  %fputc = tail call i32 @fputc(i32 10, ptr %26)
  br label %.loopexit

27:                                               ; preds = %2
  %28 = getelementptr inbounds nuw i8, ptr %0, i64 4
  %29 = load i32, ptr %28, align 4, !tbaa !26
  %30 = load i32, ptr %0, align 8, !tbaa !24
  %31 = icmp ult i32 %29, %30
  br i1 %31, label %.lr.ph.preheader, label %.loopexit

.lr.ph.preheader:                                 ; preds = %27
  %32 = zext i32 %29 to i64
  br label %.lr.ph

.lr.ph:                                           ; preds = %.lr.ph.preheader, %init_packobject.exit
  %indvars.iv = phi i64 [ %32, %.lr.ph.preheader ], [ %indvars.iv.next, %init_packobject.exit ]
  %33 = load ptr, ptr %5, align 8, !tbaa !27
  %34 = getelementptr inbounds nuw %struct.pack_info_t, ptr %33, i64 %indvars.iv
  store i8 0, ptr %34, align 1
  %35 = getelementptr inbounds nuw i8, ptr %34, i64 256
  %invariant.gep.i = getelementptr i8, ptr %34, i64 264
  br label %36

36:                                               ; preds = %36, %.lr.ph
  %indvar.i = phi i64 [ 0, %.lr.ph ], [ %indvar.next.i, %36 ]
  %37 = mul nuw nsw i64 %indvar.i, 96
  %gep.i = getelementptr i8, ptr %invariant.gep.i, i64 %37
  %38 = getelementptr inbounds nuw [6 x %struct.filter_info_t], ptr %35, i64 0, i64 %indvar.i
  store i32 -1, ptr %38, align 8, !tbaa !4
  %39 = getelementptr inbounds nuw i8, ptr %38, i64 88
  store i64 20, ptr %39, align 8, !tbaa !10
  tail call void @llvm.memset.p0.i64(ptr noundef nonnull align 4 dereferenceable(80) %gep.i, i8 0, i64 80, i1 false), !tbaa !11
  %indvar.next.i = add nuw nsw i64 %indvar.i, 1
  %exitcond.not.i = icmp eq i64 %indvar.next.i, 6
  br i1 %exitcond.not.i, label %init_packobject.exit, label %36, !llvm.loop !12

init_packobject.exit:                             ; preds = %36
  %40 = getelementptr inbounds nuw i8, ptr %34, i64 1096
  store i32 -1, ptr %40, align 8, !tbaa !14
  %41 = getelementptr inbounds nuw i8, ptr %34, i64 1104
  store i64 -1, ptr %41, align 8, !tbaa !17
  %42 = getelementptr inbounds nuw i8, ptr %34, i64 836
  store i32 -1, ptr %42, align 4, !tbaa !18
  %43 = getelementptr inbounds nuw i8, ptr %34, i64 832
  store i32 0, ptr %43, align 8, !tbaa !19
  %indvars.iv.next = add nuw nsw i64 %indvars.iv, 1
  %44 = load i32, ptr %0, align 8, !tbaa !24
  %45 = zext i32 %44 to i64
  %46 = icmp samesign ult i64 %indvars.iv.next, %45
  br i1 %46, label %.lr.ph, label %.loopexit, !llvm.loop !34

.loopexit:                                        ; preds = %init_packobject.exit, %27, %11, %23, %19
  %.0 = phi i32 [ -1, %19 ], [ -1, %23 ], [ -1, %11 ], [ 0, %27 ], [ 0, %init_packobject.exit ]
  ret i32 %.0
}